target datalayout = "e-m:e-p270:32:32-p271:32:32-p272:64:64-i64:64-i128:128-f80:128-n8:16:32:64-S128"
target triple = "x86_64-pc-linux-gnu"

%struct.HTAB = type { ptr, ptr, ptr, ptr, ptr, ptr, ptr, ptr, i8, i8, i8, i64, i64, i32 }
%struct.HASHHDR = type { [32 x %struct.FreeListData], i64, i64, i32, i32, i32, i64, i64, i64, i64, i64, i32, i32 }
%struct.FreeListData = type { i8, i64, ptr }
%struct.HASHELEMENT = type { ptr, i32 }
%struct.HASH_SEQ_STATUS = type { ptr, i32, ptr, i8, i32 }

@.str.2 = private unnamed_addr constant [11 x i8] c"dynahash.c\00", align 1
@num_seq_scans = internal global i32 0, align 4
@seq_scan_tables = internal global [100 x ptr] zeroinitializer, align 16
@seq_scan_level = internal global [100 x i32] zeroinitializer, align 16
@.str.15 = private unnamed_addr constant [44 x i8] c"no hash_seq_search scan for hash table \22%s\22\00", align 1
@__func__.deregister_seq_scan = private unnamed_addr constant [20 x i8] c"deregister_seq_scan\00", align 1

; Function Attrs: nounwind uwtable
define internal void @deregister_seq_scan(ptr noundef %0) #0 {
  %2 = alloca ptr, align 8
  %3 = alloca i32, align 4
  %4 = alloca i32, align 4
  store ptr %0, ptr %2, align 8
  call void @llvm.lifetime.start.p0(i64 4, ptr %3) #11
  %5 = load i32, ptr @num_seq_scans, align 4
  %6 = sub i32 %5, 1
  store i32 %6, ptr %3, align 4
  br label %7

7:                                                ; preds = %37, %1
  %8 = load i32, ptr %3, align 4
  %9 = icmp sge i32 %8, 0
  br i1 %9, label %10, label %40

10:                                               ; preds = %7
  %11 = load i32, ptr %3, align 4
  %12 = sext i32 %11 to i64
  %13 = getelementptr inbounds [100 x ptr], ptr @seq_scan_tables, i64 0, i64 %12
  %14 = load ptr, ptr %13, align 8
  %15 = load ptr, ptr %2, align 8
  %16 = icmp eq ptr %14, %15
  br i1 %16, label %17, label %36

17:                                               ; preds = %10
  %18 = load i32, ptr @num_seq_scans, align 4
  %19 = sub i32 %18, 1
  %20 = sext i32 %19 to i64
  %21 = getelementptr inbounds [100 x ptr], ptr @seq_scan_tables, i64 0, i64 %20
  %22 = load ptr, ptr %21, align 8
  %23 = load i32, ptr %3, align 4
  %24 = sext i32 %23 to i64
  %25 = getelementptr inbounds [100 x ptr], ptr @seq_scan_tables, i64 0, i64 %24
  store ptr %22, ptr %25, align 8
  %26 = load i32, ptr @num_seq_scans, align 4
  %27 = sub i32 %26, 1
  %28 = sext i32 %27 to i64
  %29 = getelementptr inbounds [100 x i32], ptr @seq_scan_level, i64 0, i64 %28
  %30 = load i32, ptr %29, align 4
  %31 = load i32, ptr %3, align 4
  %32 = sext i32 %31 to i64
  %33 = getelementptr inbounds [100 x i32], ptr @seq_scan_level, i64 0, i64 %32
  store i32 %30, ptr %33, align 4
  %34 = load i32, ptr @num_seq_scans, align 4
  %35 = add i32 %34, -1
  store i32 %35, ptr @num_seq_scans, align 4
  store i32 1, ptr %4, align 4
  br label %54

36:                                               ; preds = %10
  br label %37

37:                                               ; preds = %36
  %38 = load i32, ptr %3, align 4
  %39 = add i32 %38, -1
  store i32 %39, ptr %3, align 4
  br label %7, !llvm.loop !34

40:                                               ; preds = %7
  br label %41

41:                                               ; preds = %40
  br i1 true, label %42, label %44

42:                                               ; preds = %41
  %43 = call zeroext i1 @errstart_cold(i32 noundef 21, ptr noundef null) #13
  br i1 %43, label %46, label %51

44:                                               ; preds = %41
  %45 = call zeroext i1 @errstart(i32 noundef 21, ptr noundef null)
  br i1 %45, label %46, label %51

46:                                               ; preds = %44, %42
  %47 = load ptr, ptr %2, align 8
  %48 = getelementptr inbounds nuw %struct.HTAB, ptr %47, i32 0, i32 7
  %49 = load ptr, ptr %48, align 8
  %50 = call i32 (ptr, ...) @errmsg_internal(ptr noundef @.str.15, ptr noundef %49)
  call void @errfinish(ptr noundef @.str.2, i32 noundef 1893, ptr noundef @__func__.deregister_seq_scan)
  br label %51

51:                                               ; preds = %46, %44, %42
  unreachable

52:                                               ; No predecessors!
  br label %53

53:                                               ; preds = %52
  store i32 0, ptr %4, align 4
  br label %54

54:                                               ; preds = %53, %17
  call void @llvm.lifetime.end.p0(i64 4, ptr %3) #11
  %55 = load i32, ptr %4, align 4
  switch i32 %55, label %57 [
    i32 0, label %56
    i32 1, label %56
  ]

56:                                               ; preds = %54, %54
  ret void

57:                                               ; preds = %54
  unreachable
}

; Function Attrs: nounwind uwtable
define dso_local void @hash_seq_term(ptr noundef %0) #0 {
  %2 = alloca ptr, align 8
  store ptr %0, ptr %2, align 8
  %3 = load ptr, ptr %2, align 8
  %4 = getelementptr inbounds nuw %struct.HASH_SEQ_STATUS, ptr %3, i32 0, i32 0
  %5 = load ptr, ptr %4, align 8
  %6 = getelementptr inbounds nuw %struct.HTAB, ptr %5, i32 0, i32 10
  %7 = load i8, ptr %6, align 2, !range !12, !noundef !13
  %8 = trunc i8 %7 to i1
  br i1 %8, label %13, label %9

9:                                                ; preds = %1
  %10 = load ptr, ptr %2, align 8
  %11 = getelementptr inbounds nuw %struct.HASH_SEQ_STATUS, ptr %10, i32 0, i32 0
  %12 = load ptr, ptr %11, align 8
  call void @deregister_seq_scan(ptr noundef %12)
  br label %13

13:                                               ; preds = %9, %1
  ret void
}

; Function Attrs: nounwind uwtable
define dso_local ptr @hash_seq_search(ptr noundef %0) #0 {
  %2 = alloca ptr, align 8
  %3 = alloca ptr, align 8
  %4 = alloca ptr, align 8
  %5 = alloca ptr, align 8
  %6 = alloca i32, align 4
  %7 = alloca i64, align 8
  %8 = alloca i64, align 8
  %9 = alloca i64, align 8
  %10 = alloca ptr, align 8
  %11 = alloca i32, align 4
  %12 = alloca ptr, align 8
  %13 = alloca i32, align 4
  store ptr %0, ptr %3, align 8
  call void @llvm.lifetime.start.p0(i64 8, ptr %4) #11
  call void @llvm.lifetime.start.p0(i64 8, ptr %5) #11
  call void @llvm.lifetime.start.p0(i64 4, ptr %6) #11
  call void @llvm.lifetime.start.p0(i64 8, ptr %7) #11
  call void @llvm.lifetime.start.p0(i64 8, ptr %8) #11
  call void @llvm.lifetime.start.p0(i64 8, ptr %9) #11
  call void @llvm.lifetime.start.p0(i64 8, ptr %10) #11
  call void @llvm.lifetime.start.p0(i64 4, ptr %11) #11
  call void @llvm.lifetime.start.p0(i64 8, ptr %12) #11
  %14 = load ptr, ptr %3, align 8
  %15 = getelementptr inbounds nuw %struct.HASH_SEQ_STATUS, ptr %14, i32 0, i32 3
  %16 = load i8, ptr %15, align 8, !range !12, !noundef !13
  %17 = trunc i8 %16 to i1
  br i1 %17, label %18, label %43

18:                                               ; preds = %1
  br label %19

19:                                               ; preds = %37, %18
  %20 = load ptr, ptr %3, align 8
  %21 = getelementptr inbounds nuw %struct.HASH_SEQ_STATUS, ptr %20, i32 0, i32 2
  %22 = load ptr, ptr %21, align 8
  store ptr %22, ptr %12, align 8
  %23 = icmp ne ptr %22, null
  br i1 %23, label %24, label %41

24:                                               ; preds = %19
  %25 = load ptr, ptr %12, align 8
  %26 = getelementptr inbounds nuw %struct.HASHELEMENT, ptr %25, i32 0, i32 0
  %27 = load ptr, ptr %26, align 8
  %28 = load ptr, ptr %3, align 8
  %29 = getelementptr inbounds nuw %struct.HASH_SEQ_STATUS, ptr %28, i32 0, i32 2
  store ptr %27, ptr %29, align 8
  %30 = load ptr, ptr %3, align 8
  %31 = getelementptr inbounds nuw %struct.HASH_SEQ_STATUS, ptr %30, i32 0, i32 4
  %32 = load i32, ptr %31, align 4
  %33 = load ptr, ptr %12, align 8
  %34 = getelementptr inbounds nuw %struct.HASHELEMENT, ptr %33, i32 0, i32 1
  %35 = load i32, ptr %34, align 8
  %36 = icmp ne i32 %32, %35
  br i1 %36, label %37, label %38

37:                                               ; preds = %24
  br label %19, !llvm.loop !32

38:                                               ; preds = %24
  %39 = load ptr, ptr %12, align 8
  %40 = getelementptr inbounds nuw i8, ptr %39, i64 16
  store ptr %40, ptr %2, align 8
  store i32 1, ptr %13, align 4
  br label %155

41:                                               ; preds = %19
  %42 = load ptr, ptr %3, align 8
  call void @hash_seq_term(ptr noundef %42)
  store ptr null, ptr %2, align 8
  store i32 1, ptr %13, align 4
  br label %155

43:                                               ; preds = %1
  %44 = load ptr, ptr %3, align 8
  %45 = getelementptr inbounds nuw %struct.HASH_SEQ_STATUS, ptr %44, i32 0, i32 2
  %46 = load ptr, ptr %45, align 8
  store ptr %46, ptr %12, align 8
  %47 = icmp ne ptr %46, null
  br i1 %47, label %48, label %66

48:                                               ; preds = %43
  %49 = load ptr, ptr %12, align 8
  %50 = getelementptr inbounds nuw %struct.HASHELEMENT, ptr %49, i32 0, i32 0
  %51 = load ptr, ptr %50, align 8
  %52 = load ptr, ptr %3, align 8
  %53 = getelementptr inbounds nuw %struct.HASH_SEQ_STATUS, ptr %52, i32 0, i32 2
  store ptr %51, ptr %53, align 8
  %54 = load ptr, ptr %3, align 8
  %55 = getelementptr inbounds nuw %struct.HASH_SEQ_STATUS, ptr %54, i32 0, i32 2
  %56 = load ptr, ptr %55, align 8
  %57 = icmp eq ptr %56, null
  br i1 %57, label %58, label %63

58:                                               ; preds = %48
  %59 = load ptr, ptr %3, align 8
  %60 = getelementptr inbounds nuw %struct.HASH_SEQ_STATUS, ptr %59, i32 0, i32 1
  %61 = load i32, ptr %60, align 8
  %62 = add i32 %61, 1
  store i32 %62, ptr %60, align 8
  br label %63

63:                                               ; preds = %58, %48
  %64 = load ptr, ptr %12, align 8
  %65 = getelementptr inbounds nuw i8, ptr %64, i64 16
  store ptr %65, ptr %2, align 8
  store i32 1, ptr %13, align 4
  br label %155

66:                                               ; preds = %43
  %67 = load ptr, ptr %3, align 8
  %68 = getelementptr inbounds nuw %struct.HASH_SEQ_STATUS, ptr %67, i32 0, i32 1
  %69 = load i32, ptr %68, align 8
  store i32 %69, ptr %11, align 4
  %70 = load ptr, ptr %3, align 8
  %71 = getelementptr inbounds nuw %struct.HASH_SEQ_STATUS, ptr %70, i32 0, i32 0
  %72 = load ptr, ptr %71, align 8
  store ptr %72, ptr %4, align 8
  %73 = load ptr, ptr %4, align 8
  %74 = getelementptr inbounds nuw %struct.HTAB, ptr %73, i32 0, i32 0
  %75 = load ptr, ptr %74, align 8
  store ptr %75, ptr %5, align 8
  %76 = load ptr, ptr %4, align 8
  %77 = getelementptr inbounds nuw %struct.HTAB, ptr %76, i32 0, i32 12
  %78 = load i64, ptr %77, align 8
  store i64 %78, ptr %7, align 8
  %79 = load ptr, ptr %5, align 8
  %80 = getelementptr inbounds nuw %struct.HASHHDR, ptr %79, i32 0, i32 3
  %81 = load i32, ptr %80, align 8
  store i32 %81, ptr %6, align 4
  %82 = load i32, ptr %11, align 4
  %83 = load i32, ptr %6, align 4
  %84 = icmp ugt i32 %82, %83
  br i1 %84, label %85, label %87

85:                                               ; preds = %66
  %86 = load ptr, ptr %3, align 8
  call void @hash_seq_term(ptr noundef %86)
  store ptr null, ptr %2, align 8
  store i32 1, ptr %13, align 4
  br label %155

87:                                               ; preds = %66
  %88 = load i32, ptr %11, align 4
  %89 = load ptr, ptr %4, align 8
  %90 = getelementptr inbounds nuw %struct.HTAB, ptr %89, i32 0, i32 13
  %91 = load i32, ptr %90, align 8
  %92 = lshr i32 %88, %91
  %93 = zext i32 %92 to i64
  store i64 %93, ptr %8, align 8
  %94 = load i32, ptr %11, align 4
  %95 = zext i32 %94 to i64
  %96 = load i64, ptr %7, align 8
  %97 = sub i64 %96, 1
  %98 = and i64 %95, %97
  store i64 %98, ptr %9, align 8
  %99 = load ptr, ptr %4, align 8
  %100 = getelementptr inbounds nuw %struct.HTAB, ptr %99, i32 0, i32 1
  %101 = load ptr, ptr %100, align 8
  %102 = load i64, ptr %8, align 8
  %103 = getelementptr inbounds ptr, ptr %101, i64 %102
  %104 = load ptr, ptr %103, align 8
  store ptr %104, ptr %10, align 8
  br label %105

105:                                              ; preds = %135, %87
  %106 = load ptr, ptr %10, align 8
  %107 = load i64, ptr %9, align 8
  %108 = getelementptr inbounds ptr, ptr %106, i64 %107
  %109 = load ptr, ptr %108, align 8
  store ptr %109, ptr %12, align 8
  %110 = icmp eq ptr %109, null
  br i1 %110, label %111, label %136

111:                                              ; preds = %105
  %112 = load i32, ptr %11, align 4
  %113 = add i32 %112, 1
  store i32 %113, ptr %11, align 4
  %114 = load i32, ptr %6, align 4
  %115 = icmp ugt i32 %113, %114
  br i1 %115, label %116, label %121

116:                                              ; preds = %111
  %117 = load i32, ptr %11, align 4
  %118 = load ptr, ptr %3, align 8
  %119 = getelementptr inbounds nuw %struct.HASH_SEQ_STATUS, ptr %118, i32 0, i32 1
  store i32 %117, ptr %119, align 8
  %120 = load ptr, ptr %3, align 8
  call void @hash_seq_term(ptr noundef %120)
  store ptr null, ptr %2, align 8
  store i32 1, ptr %13, align 4
  br label %155

121:                                              ; preds = %111
  %122 = load i64, ptr %9, align 8
  %123 = add i64 %122, 1
  store i64 %123, ptr %9, align 8
  %124 = load i64, ptr %7, align 8
  %125 = icmp sge i64 %123, %124
  br i1 %125, label %126, label %135

126:                                              ; preds = %121
  %127 = load i64, ptr %8, align 8
  %128 = add i64 %127, 1
  store i64 %128, ptr %8, align 8
  store i64 0, ptr %9, align 8
  %129 = load ptr, ptr %4, align 8
  %130 = getelementptr inbounds nuw %struct.HTAB, ptr %129, i32 0, i32 1
  %131 = load ptr, ptr %130, align 8
  %132 = load i64, ptr %8, align 8
  %133 = getelementptr inbounds ptr, ptr %131, i64 %132
  %134 = load ptr, ptr %133, align 8
  store ptr %134, ptr %10, align 8
  br label %135

135:                                              ; preds = %126, %121
  br label %105, !llvm.loop !33

136:                                              ; preds = %105
  %137 = load ptr, ptr %12, align 8
  %138 = getelementptr inbounds nuw %struct.HASHELEMENT, ptr %137, i32 0, i32 0
  %139 = load ptr, ptr %138, align 8
  %140 = load ptr, ptr %3, align 8
  %141 = getelementptr inbounds nuw %struct.HASH_SEQ_STATUS, ptr %140, i32 0, i32 2
  store ptr %139, ptr %141, align 8
  %142 = load ptr, ptr %3, align 8
  %143 = getelementptr inbounds nuw %struct.HASH_SEQ_STATUS, ptr %142, i32 0, i32 2
  %144 = load ptr, ptr %143, align 8
  %145 = icmp eq ptr %144, null
  br i1 %145, label %146, label %149

146:                                              ; preds = %136
  %147 = load i32, ptr %11, align 4
  %148 = add i32 %147, 1
  store i32 %148, ptr %11, align 4
  br label %149

149:                                              ; preds = %146, %136
  %150 = load i32, ptr %11, align 4
  %151 = load ptr, ptr %3, align 8
  %152 = getelementptr inbounds nuw %struct.HASH_SEQ_STATUS, ptr %151, i32 0, i32 1
  store i32 %150, ptr %152, align 8
  %153 = load ptr, ptr %12, align 8
  %154 = getelementptr inbounds nuw i8, ptr %153, i64 16
  store ptr %154, ptr %2, align 8
  store i32 1, ptr %13, align 4
  br label %155

155:                                              ; preds = %149, %116, %85, %63, %41, %38
  call void @llvm.lifetime.end.p0(i64 8, ptr %12) #11
  call void @llvm.lifetime.end.p0(i64 4, ptr %11) #11
  call void @llvm.lifetime.end.p0(i64 8, ptr %10) #11
  call void @llvm.lifetime.end.p0(i64 8, ptr %9) #11
  call void @llvm.lifetime.end.p0(i64 8, ptr %8) #11
  call void @llvm.lifetime.end.p0(i64 8, ptr %7) #11
  call void @llvm.lifetime.end.p0(i64 4, ptr %6) #11
  call void @llvm.lifetime.end.p0(i64 8, ptr %5) #11
  call void @llvm.lifetime.end.p0(i64 8, ptr %4) #11
  %156 = load ptr, ptr %2, align 8
  ret ptr %156
}