; Function Attrs: nounwind uwtable
define dso_local ptr @hash_seq_search(ptr noundef captures(none) %0) local_unnamed_addr #0 {
  %2 = getelementptr inbounds nuw i8, ptr %0, i64 24
  %3 = load i8, ptr %2, align 8, !range !10, !noundef !11
  %4 = trunc nuw i8 %3 to i1
  %5 = getelementptr inbounds nuw i8, ptr %0, i64 16
  %.promoted = load ptr, ptr %5, align 8
  br i1 %4, label %.preheader, label %45

.preheader:                                       ; preds = %1
  %6 = getelementptr inbounds nuw i8, ptr %0, i64 28
  br label %7

7:                                                ; preds = %.preheader, %9
  %8 = phi ptr [ %.promoted, %.preheader ], [ %10, %9 ]
  %.not63 = icmp eq ptr %8, null
  br i1 %.not63, label %16, label %9

9:                                                ; preds = %7
  %10 = load ptr, ptr %8, align 8
  store ptr %10, ptr %5, align 8
  %11 = load i32, ptr %6, align 4
  %12 = getelementptr inbounds nuw i8, ptr %8, i64 8
  %13 = load i32, ptr %12, align 8
  %.not64 = icmp eq i32 %11, %13
  br i1 %.not64, label %14, label %7, !llvm.loop !30

14:                                               ; preds = %9
  %15 = getelementptr inbounds nuw i8, ptr %8, i64 16
  br label %hash_seq_term.exit

16:                                               ; preds = %7
  %17 = load ptr, ptr %0, align 8
  %18 = getelementptr inbounds nuw i8, ptr %17, i64 66
  %19 = load i8, ptr %18, align 2, !range !10, !noundef !11
  %20 = trunc nuw i8 %19 to i1
  br i1 %20, label %hash_seq_term.exit, label %21

21:                                               ; preds = %16
  %22 = load i32, ptr @num_seq_scans, align 4
  %23 = zext i32 %22 to i64
  br label %24

24:                                               ; preds = %27, %21
  %indvars.iv.i.i = phi i64 [ %indvars.iv.next.i.i, %27 ], [ %23, %21 ]
  %indvars.iv.next.i.i = add nsw i64 %indvars.iv.i.i, -1
  %25 = and i64 %indvars.iv.next.i.i, 2147483648
  %26 = icmp eq i64 %25, 0
  br i1 %26, label %27, label %32

27:                                               ; preds = %24
  %28 = and i64 %indvars.iv.next.i.i, 2147483647
  %29 = getelementptr inbounds nuw [100 x ptr], ptr @seq_scan_tables, i64 0, i64 %28
  %30 = load ptr, ptr %29, align 8
  %31 = icmp eq ptr %30, %17
  br i1 %31, label %deregister_seq_scan.exit.i, label %24, !llvm.loop !31

32:                                               ; preds = %24
  %33 = tail call zeroext i1 @errstart_cold(i32 noundef 21, ptr noundef null) #19
  tail call void @llvm.assume(i1 %33)
  %34 = getelementptr inbounds nuw i8, ptr %17, i64 56
  %35 = load ptr, ptr %34, align 8
  %36 = tail call i32 (ptr, ...) @errmsg_internal(ptr noundef nonnull @.str.15, ptr noundef %35) #17
  tail call void @errfinish(ptr noundef nonnull @.str.2, i32 noundef 1893, ptr noundef nonnull @__func__.deregister_seq_scan) #17
  unreachable

deregister_seq_scan.exit.i:                       ; preds = %27
  %37 = getelementptr inbounds nuw [100 x ptr], ptr @seq_scan_tables, i64 0, i64 %28
  %38 = add i32 %22, -1
  %39 = sext i32 %38 to i64
  %40 = getelementptr inbounds [100 x ptr], ptr @seq_scan_tables, i64 0, i64 %39
  %41 = load ptr, ptr %40, align 8
  store ptr %41, ptr %37, align 8
  %42 = getelementptr inbounds [100 x i32], ptr @seq_scan_level, i64 0, i64 %39
  %43 = load i32, ptr %42, align 4
  %44 = getelementptr inbounds nuw [100 x i32], ptr @seq_scan_level, i64 0, i64 %28
  store i32 %43, ptr %44, align 4
  store i32 %38, ptr @num_seq_scans, align 4
  br label %hash_seq_term.exit

45:                                               ; preds = %1
  %.not = icmp eq ptr %.promoted, null
  br i1 %.not, label %55, label %46

46:                                               ; preds = %45
  %47 = load ptr, ptr %.promoted, align 8
  store ptr %47, ptr %5, align 8
  %48 = icmp eq ptr %47, null
  br i1 %48, label %49, label %53

49:                                               ; preds = %46
  %50 = getelementptr inbounds nuw i8, ptr %0, i64 8
  %51 = load i32, ptr %50, align 8
  %52 = add i32 %51, 1
  store i32 %52, ptr %50, align 8
  br label %53

53:                                               ; preds = %49, %46
  %54 = getelementptr inbounds nuw i8, ptr %.promoted, i64 16
  br label %hash_seq_term.exit

55:                                               ; preds = %45
  %56 = getelementptr inbounds nuw i8, ptr %0, i64 8
  %57 = load i32, ptr %56, align 8
  %58 = load ptr, ptr %0, align 8
  %59 = load ptr, ptr %58, align 8
  %60 = getelementptr inbounds nuw i8, ptr %58, i64 80
  %61 = load i64, ptr %60, align 8
  %62 = getelementptr inbounds nuw i8, ptr %59, i64 784
  %63 = load i32, ptr %62, align 8
  %64 = icmp ugt i32 %57, %63
  br i1 %64, label %65, label %93

65:                                               ; preds = %55
  %66 = getelementptr inbounds nuw i8, ptr %58, i64 66
  %67 = load i8, ptr %66, align 2, !range !10, !noundef !11
  %68 = trunc nuw i8 %67 to i1
  br i1 %68, label %hash_seq_term.exit, label %69

69:                                               ; preds = %65
  %70 = load i32, ptr @num_seq_scans, align 4
  %71 = zext i32 %70 to i64
  br label %72

72:                                               ; preds = %75, %69
  %indvars.iv.i.i65 = phi i64 [ %indvars.iv.next.i.i66, %75 ], [ %71, %69 ]
  %indvars.iv.next.i.i66 = add nsw i64 %indvars.iv.i.i65, -1
  %73 = and i64 %indvars.iv.next.i.i66, 2147483648
  %74 = icmp eq i64 %73, 0
  br i1 %74, label %75, label %80

75:                                               ; preds = %72
  %76 = and i64 %indvars.iv.next.i.i66, 2147483647
  %77 = getelementptr inbounds nuw [100 x ptr], ptr @seq_scan_tables, i64 0, i64 %76
  %78 = load ptr, ptr %77, align 8
  %79 = icmp eq ptr %78, %58
  br i1 %79, label %deregister_seq_scan.exit.i67, label %72, !llvm.loop !31

80:                                               ; preds = %72
  %81 = tail call zeroext i1 @errstart_cold(i32 noundef 21, ptr noundef null) #19
  tail call void @llvm.assume(i1 %81)
  %82 = getelementptr inbounds nuw i8, ptr %58, i64 56
  %83 = load ptr, ptr %82, align 8
  %84 = tail call i32 (ptr, ...) @errmsg_internal(ptr noundef nonnull @.str.15, ptr noundef %83) #17
  tail call void @errfinish(ptr noundef nonnull @.str.2, i32 noundef 1893, ptr noundef nonnull @__func__.deregister_seq_scan) #17
  unreachable

deregister_seq_scan.exit.i67:                     ; preds = %75
  %85 = getelementptr inbounds nuw [100 x ptr], ptr @seq_scan_tables, i64 0, i64 %76
  %86 = add i32 %70, -1
  %87 = sext i32 %86 to i64
  %88 = getelementptr inbounds [100 x ptr], ptr @seq_scan_tables, i64 0, i64 %87
  %89 = load ptr, ptr %88, align 8
  store ptr %89, ptr %85, align 8
  %90 = getelementptr inbounds [100 x i32], ptr @seq_scan_level, i64 0, i64 %87
  %91 = load i32, ptr %90, align 4
  %92 = getelementptr inbounds nuw [100 x i32], ptr @seq_scan_level, i64 0, i64 %76
  store i32 %91, ptr %92, align 4
  store i32 %86, ptr @num_seq_scans, align 4
  br label %hash_seq_term.exit

93:                                               ; preds = %55
  %94 = getelementptr inbounds nuw i8, ptr %58, i64 88
  %95 = load i32, ptr %94, align 8
  %96 = lshr i32 %57, %95
  %97 = zext i32 %96 to i64
  %98 = zext i32 %57 to i64
  %99 = add i64 %61, 4294967295
  %100 = and i64 %99, %98
  %101 = getelementptr inbounds nuw i8, ptr %58, i64 8
  %102 = load ptr, ptr %101, align 8
  %103 = getelementptr inbounds nuw ptr, ptr %102, i64 %97
  %104 = load ptr, ptr %103, align 8
  %105 = getelementptr inbounds nuw ptr, ptr %104, i64 %100
  %106 = load ptr, ptr %105, align 8
  %107 = icmp eq ptr %106, null
  br i1 %107, label %.lr.ph, label %._crit_edge

.lr.ph:                                           ; preds = %93, %144
  %.087 = phi i32 [ %108, %144 ], [ %57, %93 ]
  %.04786 = phi ptr [ %.148, %144 ], [ %104, %93 ]
  %.04985 = phi i64 [ %.150, %144 ], [ %100, %93 ]
  %.05184 = phi i64 [ %.152, %144 ], [ %97, %93 ]
  %108 = add i32 %.087, 1
  %109 = icmp ugt i32 %108, %63
  br i1 %109, label %110, label %138

110:                                              ; preds = %.lr.ph
  store i32 %108, ptr %56, align 8
  %111 = getelementptr inbounds nuw i8, ptr %58, i64 66
  %112 = load i8, ptr %111, align 2, !range !10, !noundef !11
  %113 = trunc nuw i8 %112 to i1
  br i1 %113, label %hash_seq_term.exit, label %114

114:                                              ; preds = %110
  %115 = load i32, ptr @num_seq_scans, align 4
  %116 = zext i32 %115 to i64
  br label %117

117:                                              ; preds = %120, %114
  %indvars.iv.i.i69 = phi i64 [ %indvars.iv.next.i.i70, %120 ], [ %116, %114 ]
  %indvars.iv.next.i.i70 = add nsw i64 %indvars.iv.i.i69, -1
  %118 = and i64 %indvars.iv.next.i.i70, 2147483648
  %119 = icmp eq i64 %118, 0
  br i1 %119, label %120, label %125

120:                                              ; preds = %117
  %121 = and i64 %indvars.iv.next.i.i70, 2147483647
  %122 = getelementptr inbounds nuw [100 x ptr], ptr @seq_scan_tables, i64 0, i64 %121
  %123 = load ptr, ptr %122, align 8
  %124 = icmp eq ptr %123, %58
  br i1 %124, label %deregister_seq_scan.exit.i71, label %117, !llvm.loop !31

125:                                              ; preds = %117
  %126 = tail call zeroext i1 @errstart_cold(i32 noundef 21, ptr noundef null) #19
  tail call void @llvm.assume(i1 %126)
  %127 = getelementptr inbounds nuw i8, ptr %58, i64 56
  %128 = load ptr, ptr %127, align 8
  %129 = tail call i32 (ptr, ...) @errmsg_internal(ptr noundef nonnull @.str.15, ptr noundef %128) #17
  tail call void @errfinish(ptr noundef nonnull @.str.2, i32 noundef 1893, ptr noundef nonnull @__func__.deregister_seq_scan) #17
  unreachable

deregister_seq_scan.exit.i71:                     ; preds = %120
  %130 = getelementptr inbounds nuw [100 x ptr], ptr @seq_scan_tables, i64 0, i64 %121
  %131 = add i32 %115, -1
  %132 = sext i32 %131 to i64
  %133 = getelementptr inbounds [100 x ptr], ptr @seq_scan_tables, i64 0, i64 %132
  %134 = load ptr, ptr %133, align 8
  store ptr %134, ptr %130, align 8
  %135 = getelementptr inbounds [100 x i32], ptr @seq_scan_level, i64 0, i64 %132
  %136 = load i32, ptr %135, align 4
  %137 = getelementptr inbounds nuw [100 x i32], ptr @seq_scan_level, i64 0, i64 %121
  store i32 %136, ptr %137, align 4
  store i32 %131, ptr @num_seq_scans, align 4
  br label %hash_seq_term.exit

138:                                              ; preds = %.lr.ph
  %139 = add i64 %.04985, 1
  %.not62 = icmp slt i64 %139, %61
  br i1 %.not62, label %144, label %140

140:                                              ; preds = %138
  %141 = add i64 %.05184, 1
  %142 = getelementptr inbounds ptr, ptr %102, i64 %141
  %143 = load ptr, ptr %142, align 8
  br label %144

144:                                              ; preds = %140, %138
  %.152 = phi i64 [ %141, %140 ], [ %.05184, %138 ]
  %.150 = phi i64 [ 0, %140 ], [ %139, %138 ]
  %.148 = phi ptr [ %143, %140 ], [ %.04786, %138 ]
  %145 = getelementptr inbounds ptr, ptr %.148, i64 %.150
  %146 = load ptr, ptr %145, align 8
  %147 = icmp eq ptr %146, null
  br i1 %147, label %.lr.ph, label %._crit_edge, !llvm.loop !32

._crit_edge:                                      ; preds = %144, %93
  %.0.lcssa = phi i32 [ %57, %93 ], [ %108, %144 ]
  %.lcssa80 = phi ptr [ %106, %93 ], [ %146, %144 ]
  %148 = load ptr, ptr %.lcssa80, align 8
  store ptr %148, ptr %5, align 8
  %149 = icmp eq ptr %148, null
  %150 = zext i1 %149 to i32
  %spec.select = add i32 %.0.lcssa, %150
  store i32 %spec.select, ptr %56, align 8
  %151 = getelementptr inbounds nuw i8, ptr %.lcssa80, i64 16
  br label %hash_seq_term.exit

hash_seq_term.exit:                               ; preds = %deregister_seq_scan.exit.i71, %110, %deregister_seq_scan.exit.i67, %65, %deregister_seq_scan.exit.i, %16, %._crit_edge, %53, %14
  %.053 = phi ptr [ %15, %14 ], [ %54, %53 ], [ %151, %._crit_edge ], [ null, %16 ], [ null, %deregister_seq_scan.exit.i ], [ null, %65 ], [ null, %deregister_seq_scan.exit.i67 ], [ null, %110 ], [ null, %deregister_seq_scan.exit.i71 ]
  ret ptr %.053
}